target datalayout = "e-m:e-p270:32:32-p271:32:32-p272:64:64-i64:64-i128:128-f80:128-n8:16:32:64-S128"
target triple = "x86_64-pc-linux-gnu"

@.str.2 = private unnamed_addr constant [4 x i8] c".i \00", align 1
@.str.3 = private unnamed_addr constant [4 x i8] c".o \00", align 1
@.str.4 = private unnamed_addr constant [4 x i8] c".p \00", align 1
@.str.5 = private unnamed_addr constant [4 x i8] c".e \00", align 1
@.str.6 = private unnamed_addr constant [7 x i8] c".type \00", align 1
@.str.7 = private unnamed_addr constant [3 x i8] c"%s\00", align 1
@.str.8 = private unnamed_addr constant [2 x i8] c"f\00", align 1
@.str.9 = private unnamed_addr constant [3 x i8] c"fr\00", align 1
@.str.10 = private unnamed_addr constant [3 x i8] c"fd\00", align 1
@.str.11 = private unnamed_addr constant [4 x i8] c"fdr\00", align 1
@.str.12 = private unnamed_addr constant [47 x i8] c"The number of inputs (.i) should be positive.\0A\00", align 1
@.str.13 = private unnamed_addr constant [48 x i8] c"The number of outputs (.o) should be positive.\0A\00", align 1

; Function Attrs: inlinehint nounwind willreturn memory(read) uwtable
define available_externally i32 @atoi(ptr noundef nonnull %0) #5 {
  %2 = alloca ptr, align 8
  store ptr %0, ptr %2, align 8, !tbaa !3
  %3 = load ptr, ptr %2, align 8, !tbaa !3
  %4 = call i64 @strtol(ptr noundef %3, ptr noundef null, i32 noundef 10) #10
  %5 = trunc i64 %4 to i32
  ret i32 %5
}

; Function Attrs: nounwind uwtable
define i32 @Pla_ReadPlaHeader(ptr noundef %0, ptr noundef %1, ptr noundef %2, ptr noundef %3, ptr noundef %4, ptr noundef %5) #0 {
  %7 = alloca ptr, align 8
  %8 = alloca ptr, align 8
  %9 = alloca ptr, align 8
  %10 = alloca ptr, align 8
  %11 = alloca ptr, align 8
  %12 = alloca ptr, align 8
  %13 = alloca ptr, align 8
  %14 = alloca [100 x i8], align 16
  store ptr %0, ptr %7, align 8, !tbaa !3
  store ptr %1, ptr %8, align 8, !tbaa !3
  store ptr %2, ptr %9, align 8, !tbaa !18
  store ptr %3, ptr %10, align 8, !tbaa !18
  store ptr %4, ptr %11, align 8, !tbaa !18
  store ptr %5, ptr %12, align 8, !tbaa !18
  call void @llvm.lifetime.start.p0(i64 8, ptr %13) #10
  %15 = load ptr, ptr %12, align 8, !tbaa !18
  store i32 0, ptr %15, align 4, !tbaa !12
  %16 = load ptr, ptr %11, align 8, !tbaa !18
  store i32 -1, ptr %16, align 4, !tbaa !12
  %17 = load ptr, ptr %10, align 8, !tbaa !18
  store i32 -1, ptr %17, align 4, !tbaa !12
  %18 = load ptr, ptr %9, align 8, !tbaa !18
  store i32 -1, ptr %18, align 4, !tbaa !12
  %19 = load ptr, ptr %7, align 8, !tbaa !3
  store ptr %19, ptr %13, align 8, !tbaa !3
  br label %20

20:                                               ; preds = %104, %6
  %21 = load ptr, ptr %13, align 8, !tbaa !3
  %22 = load ptr, ptr %8, align 8, !tbaa !3
  %23 = icmp ult ptr %21, %22
  br i1 %23, label %24, label %107

24:                                               ; preds = %20
  %25 = load ptr, ptr %13, align 8, !tbaa !3
  %26 = load i8, ptr %25, align 1, !tbaa !14
  %27 = sext i8 %26 to i32
  %28 = icmp ne i32 %27, 46
  br i1 %28, label %29, label %30

29:                                               ; preds = %24
  br label %104

30:                                               ; preds = %24
  %31 = load ptr, ptr %13, align 8, !tbaa !3
  %32 = call i32 @strncmp(ptr noundef %31, ptr noundef @.str.2, i64 noundef 3) #12
  %33 = icmp ne i32 %32, 0
  br i1 %33, label %39, label %34

34:                                               ; preds = %30
  %35 = load ptr, ptr %13, align 8, !tbaa !3
  %36 = getelementptr inbounds i8, ptr %35, i64 3
  %37 = call i32 @atoi(ptr noundef %36) #12
  %38 = load ptr, ptr %9, align 8, !tbaa !18
  store i32 %37, ptr %38, align 4, !tbaa !12
  br label %103

39:                                               ; preds = %30
  %40 = load ptr, ptr %13, align 8, !tbaa !3
  %41 = call i32 @strncmp(ptr noundef %40, ptr noundef @.str.3, i64 noundef 3) #12
  %42 = icmp ne i32 %41, 0
  br i1 %42, label %48, label %43

43:                                               ; preds = %39
  %44 = load ptr, ptr %13, align 8, !tbaa !3
  %45 = getelementptr inbounds i8, ptr %44, i64 3
  %46 = call i32 @atoi(ptr noundef %45) #12
  %47 = load ptr, ptr %10, align 8, !tbaa !18
  store i32 %46, ptr %47, align 4, !tbaa !12
  br label %102

48:                                               ; preds = %39
  %49 = load ptr, ptr %13, align 8, !tbaa !3
  %50 = call i32 @strncmp(ptr noundef %49, ptr noundef @.str.4, i64 noundef 3) #12
  %51 = icmp ne i32 %50, 0
  br i1 %51, label %57, label %52

52:                                               ; preds = %48
  %53 = load ptr, ptr %13, align 8, !tbaa !3
  %54 = getelementptr inbounds i8, ptr %53, i64 3
  %55 = call i32 @atoi(ptr noundef %54) #12
  %56 = load ptr, ptr %11, align 8, !tbaa !18
  store i32 %55, ptr %56, align 4, !tbaa !12
  br label %101

57:                                               ; preds = %48
  %58 = load ptr, ptr %13, align 8, !tbaa !3
  %59 = call i32 @strncmp(ptr noundef %58, ptr noundef @.str.5, i64 noundef 3) #12
  %60 = icmp ne i32 %59, 0
  br i1 %60, label %62, label %61

61:                                               ; preds = %57
  br label %107

62:                                               ; preds = %57
  %63 = load ptr, ptr %13, align 8, !tbaa !3
  %64 = call i32 @strncmp(ptr noundef %63, ptr noundef @.str.6, i64 noundef 6) #12
  %65 = icmp ne i32 %64, 0
  br i1 %65, label %99, label %66

66:                                               ; preds = %62
  call void @llvm.lifetime.start.p0(i64 100, ptr %14) #10
  %67 = load ptr, ptr %12, align 8, !tbaa !18
  store i32 4, ptr %67, align 4, !tbaa !12
  %68 = load ptr, ptr %13, align 8, !tbaa !3
  %69 = getelementptr inbounds i8, ptr %68, i64 6
  %70 = getelementptr inbounds [100 x i8], ptr %14, i64 0, i64 0
  %71 = call i32 (ptr, ptr, ...) @__isoc99_sscanf(ptr noundef %69, ptr noundef @.str.7, ptr noundef %70) #10
  %72 = getelementptr inbounds [100 x i8], ptr %14, i64 0, i64 0
  %73 = call i32 @strcmp(ptr noundef %72, ptr noundef @.str.8) #12
  %74 = icmp ne i32 %73, 0
  br i1 %74, label %77, label %75

75:                                               ; preds = %66
  %76 = load ptr, ptr %12, align 8, !tbaa !18
  store i32 1, ptr %76, align 4, !tbaa !12
  br label %98

77:                                               ; preds = %66
  %78 = getelementptr inbounds [100 x i8], ptr %14, i64 0, i64 0
  %79 = call i32 @strcmp(ptr noundef %78, ptr noundef @.str.9) #12
  %80 = icmp ne i32 %79, 0
  br i1 %80, label %83, label %81

81:                                               ; preds = %77
  %82 = load ptr, ptr %12, align 8, !tbaa !18
  store i32 2, ptr %82, align 4, !tbaa !12
  br label %97

83:                                               ; preds = %77
  %84 = getelementptr inbounds [100 x i8], ptr %14, i64 0, i64 0
  %85 = call i32 @strcmp(ptr noundef %84, ptr noundef @.str.10) #12
  %86 = icmp ne i32 %85, 0
  br i1 %86, label %89, label %87

87:                                               ; preds = %83
  %88 = load ptr, ptr %12, align 8, !tbaa !18
  store i32 0, ptr %88, align 4, !tbaa !12
  br label %96

89:                                               ; preds = %83
  %90 = getelementptr inbounds [100 x i8], ptr %14, i64 0, i64 0
  %91 = call i32 @strcmp(ptr noundef %90, ptr noundef @.str.11) #12
  %92 = icmp ne i32 %91, 0
  br i1 %92, label %95, label %93

93:                                               ; preds = %89
  %94 = load ptr, ptr %12, align 8, !tbaa !18
  store i32 3, ptr %94, align 4, !tbaa !12
  br label %95

95:                                               ; preds = %93, %89
  br label %96

96:                                               ; preds = %95, %87
  br label %97

97:                                               ; preds = %96, %81
  br label %98

98:                                               ; preds = %97, %75
  call void @llvm.lifetime.end.p0(i64 100, ptr %14) #10
  br label %99

99:                                               ; preds = %98, %62
  br label %100

100:                                              ; preds = %99
  br label %101

101:                                              ; preds = %100, %52
  br label %102

102:                                              ; preds = %101, %43
  br label %103

103:                                              ; preds = %102, %34
  br label %104

104:                                              ; preds = %103, %29
  %105 = load ptr, ptr %13, align 8, !tbaa !3
  %106 = getelementptr inbounds nuw i8, ptr %105, i32 1
  store ptr %106, ptr %13, align 8, !tbaa !3
  br label %20, !llvm.loop !20

107:                                              ; preds = %61, %20
  %108 = load ptr, ptr %9, align 8, !tbaa !18
  %109 = load i32, ptr %108, align 4, !tbaa !12
  %110 = icmp sle i32 %109, 0
  br i1 %110, label %111, label %113

111:                                              ; preds = %107
  %112 = call i32 (ptr, ...) @printf(ptr noundef @.str.12)
  br label %113

113:                                              ; preds = %111, %107
  %114 = load ptr, ptr %10, align 8, !tbaa !18
  %115 = load i32, ptr %114, align 4, !tbaa !12
  %116 = icmp sle i32 %115, 0
  br i1 %116, label %117, label %119

117:                                              ; preds = %113
  %118 = call i32 (ptr, ...) @printf(ptr noundef @.str.13)
  br label %119

119:                                              ; preds = %117, %113
  %120 = load ptr, ptr %9, align 8, !tbaa !18
  %121 = load i32, ptr %120, align 4, !tbaa !12
  %122 = icmp sgt i32 %121, 0
  br i1 %122, label %123, label %127

123:                                              ; preds = %119
  %124 = load ptr, ptr %10, align 8, !tbaa !18
  %125 = load i32, ptr %124, align 4, !tbaa !12
  %126 = icmp sgt i32 %125, 0
  br label %127

127:                                              ; preds = %123, %119
  %128 = phi i1 [ false, %119 ], [ %126, %123 ]
  %129 = zext i1 %128 to i32
  call void @llvm.lifetime.end.p0(i64 8, ptr %13) #10
  ret i32 %129
}