; Function Attrs: nofree nounwind uwtable
define range(i32 0, 2) i32 @Pla_ReadPlaHeader(ptr noundef readonly %0, ptr noundef readnone %1, ptr noundef captures(none) initializes((0, 4)) %2, ptr noundef captures(none) initializes((0, 4)) %3, ptr noundef writeonly captures(none) initializes((0, 4)) %4, ptr noundef writeonly captures(none) initializes((0, 4)) %5) local_unnamed_addr #0 {
  %7 = alloca [100 x i8], align 16
  store i32 0, ptr %5, align 4, !tbaa !12
  store i32 -1, ptr %4, align 4, !tbaa !12
  store i32 -1, ptr %3, align 4, !tbaa !12
  store i32 -1, ptr %2, align 4, !tbaa !12
  %8 = icmp ult ptr %0, %1
  br i1 %8, label %.lr.ph, label %.tail54._crit_edge.thread

.lr.ph:                                           ; preds = %6, %50
  %.059 = phi ptr [ %51, %50 ], [ %0, %6 ]
  %9 = load i8, ptr %.059, align 1, !tbaa !3
  %.not = icmp eq i8 %9, 46
  br i1 %.not, label %sub_1, label %50

sub_1:                                            ; preds = %.lr.ph
  %10 = getelementptr inbounds nuw i8, ptr %.059, i64 1
  %11 = load i8, ptr %10, align 1
  %.not62 = icmp eq i8 %11, 105
  br i1 %.not62, label %.tail, label %sub_146

.tail:                                            ; preds = %sub_1
  %12 = getelementptr inbounds nuw i8, ptr %.059, i64 2
  %13 = load i8, ptr %12, align 1
  %14 = icmp eq i8 %13, 32
  br i1 %14, label %15, label %sub_146

15:                                               ; preds = %.tail
  %16 = getelementptr inbounds nuw i8, ptr %.059, i64 3
  %17 = call i64 @strtol(ptr noundef nonnull captures(none) %16, ptr noundef null, i32 noundef 10) #17
  %18 = trunc i64 %17 to i32
  store i32 %18, ptr %2, align 4, !tbaa !12
  br label %50

sub_146:                                          ; preds = %sub_1, %.tail
  %19 = getelementptr inbounds nuw i8, ptr %.059, i64 1
  %20 = load i8, ptr %19, align 1
  %.not64 = icmp eq i8 %20, 111
  br i1 %.not64, label %.tail44, label %sub_151

.tail44:                                          ; preds = %sub_146
  %21 = getelementptr inbounds nuw i8, ptr %.059, i64 2
  %22 = load i8, ptr %21, align 1
  %23 = icmp eq i8 %22, 32
  br i1 %23, label %24, label %sub_151

24:                                               ; preds = %.tail44
  %25 = getelementptr inbounds nuw i8, ptr %.059, i64 3
  %26 = call i64 @strtol(ptr noundef nonnull captures(none) %25, ptr noundef null, i32 noundef 10) #17
  %27 = trunc i64 %26 to i32
  store i32 %27, ptr %3, align 4, !tbaa !12
  br label %50

sub_151:                                          ; preds = %sub_146, %.tail44
  %28 = getelementptr inbounds nuw i8, ptr %.059, i64 1
  %29 = load i8, ptr %28, align 1
  %.not66 = icmp eq i8 %29, 112
  br i1 %.not66, label %.tail49, label %sub_156

.tail49:                                          ; preds = %sub_151
  %30 = getelementptr inbounds nuw i8, ptr %.059, i64 2
  %31 = load i8, ptr %30, align 1
  %32 = icmp eq i8 %31, 32
  br i1 %32, label %33, label %sub_156

33:                                               ; preds = %.tail49
  %34 = getelementptr inbounds nuw i8, ptr %.059, i64 3
  %35 = call i64 @strtol(ptr noundef nonnull captures(none) %34, ptr noundef null, i32 noundef 10) #17
  %36 = trunc i64 %35 to i32
  store i32 %36, ptr %4, align 4, !tbaa !12
  br label %50

sub_156:                                          ; preds = %sub_151, %.tail49
  %37 = getelementptr inbounds nuw i8, ptr %.059, i64 1
  %38 = load i8, ptr %37, align 1
  %.not68 = icmp eq i8 %38, 101
  br i1 %.not68, label %.tail54, label %.tail54.thread

.tail54:                                          ; preds = %sub_156
  %39 = getelementptr inbounds nuw i8, ptr %.059, i64 2
  %40 = load i8, ptr %39, align 1
  %41 = icmp eq i8 %40, 32
  br i1 %41, label %.tail54._crit_edge, label %.tail54.thread

.tail54.thread:                                   ; preds = %sub_156, %.tail54
  %42 = call i32 @strncmp(ptr noundef nonnull dereferenceable(1) %.059, ptr noundef nonnull dereferenceable(7) @.str.6, i64 noundef 6) #18
  %.not35 = icmp eq i32 %42, 0
  br i1 %.not35, label %43, label %50

43:                                               ; preds = %.tail54.thread
  call void @llvm.lifetime.start.p0(i64 100, ptr nonnull %7) #17
  store i32 4, ptr %5, align 4, !tbaa !12
  %44 = getelementptr inbounds nuw i8, ptr %.059, i64 6
  %45 = call i32 (ptr, ptr, ...) @__isoc99_sscanf(ptr noundef nonnull %44, ptr noundef nonnull @.str.7, ptr noundef nonnull %7) #17
  %lhsv = load i16, ptr %7, align 16
  %.not37 = icmp eq i16 %lhsv, 102
  br i1 %.not37, label %.sink.split, label %46

46:                                               ; preds = %43
  %bcmp = call i32 @bcmp(ptr noundef nonnull dereferenceable(3) %7, ptr noundef nonnull dereferenceable(3) @.str.9, i64 3)
  %.not38 = icmp eq i32 %bcmp, 0
  br i1 %.not38, label %.sink.split, label %47

47:                                               ; preds = %46
  %bcmp39 = call i32 @bcmp(ptr noundef nonnull dereferenceable(3) %7, ptr noundef nonnull dereferenceable(3) @.str.10, i64 3)
  %.not40 = icmp eq i32 %bcmp39, 0
  br i1 %.not40, label %.sink.split, label %48

48:                                               ; preds = %47
  %lhsv41 = load i32, ptr %7, align 16
  %.not43 = icmp eq i32 %lhsv41, 7496806
  br i1 %.not43, label %.sink.split, label %49

.sink.split:                                      ; preds = %48, %47, %46, %43
  %.sink = phi i32 [ 1, %43 ], [ 2, %46 ], [ 0, %47 ], [ 3, %48 ]
  store i32 %.sink, ptr %5, align 4, !tbaa !12
  br label %49

49:                                               ; preds = %.sink.split, %48
  call void @llvm.lifetime.end.p0(i64 100, ptr nonnull %7) #17
  br label %50

50:                                               ; preds = %15, %33, %.tail54.thread, %49, %24, %.lr.ph
  %51 = getelementptr inbounds nuw i8, ptr %.059, i64 1
  %exitcond.not = icmp eq ptr %51, %1
  br i1 %exitcond.not, label %.tail54._crit_edge, label %.lr.ph, !llvm.loop !14

.tail54._crit_edge:                               ; preds = %50, %.tail54
  %.pre = load i32, ptr %2, align 4, !tbaa !12
  %52 = icmp slt i32 %.pre, 1
  br i1 %52, label %.tail54._crit_edge.thread, label %53

.tail54._crit_edge.thread:                        ; preds = %6, %.tail54._crit_edge
  %puts = call i32 @puts(ptr nonnull dereferenceable(1) @str.1)
  br label %53

53:                                               ; preds = %.tail54._crit_edge.thread, %.tail54._crit_edge
  %54 = load i32, ptr %3, align 4, !tbaa !12
  %55 = icmp slt i32 %54, 1
  br i1 %55, label %56, label %57

56:                                               ; preds = %53
  %puts34 = call i32 @puts(ptr nonnull dereferenceable(1) @str.2)
  br label %57

57:                                               ; preds = %56, %53
  %58 = load i32, ptr %2, align 4, !tbaa !12
  %59 = icmp sgt i32 %58, 0
  br i1 %59, label %60, label %64

60:                                               ; preds = %57
  %61 = load i32, ptr %3, align 4, !tbaa !12
  %62 = icmp sgt i32 %61, 0
  %63 = zext i1 %62 to i32
  br label %64

64:                                               ; preds = %60, %57
  %65 = phi i32 [ 0, %57 ], [ %63, %60 ]
  ret i32 %65
}